; Function Attrs: mustprogress nofree norecurse nosync nounwind willreturn memory(readwrite, inaccessiblemem: none) uwtable
define internal void @"_ZNSt3__110__function6__funcIZN3tev11ImageViewerC1ERKNS_10shared_ptrINS2_22BackgroundImagesLoaderEEEbbbE3$_9NS_9allocatorIS9_EEFvRKN7nanogui5ColorEEEclESF_"(ptr nocapture noundef nonnull readonly align 8 dereferenceable(24) %0, ptr nocapture noundef nonnull readonly align 4 dereferenceable(16) %1) unnamed_addr #29 align 2 {
  %3 = getelementptr inbounds i8, ptr %0, i64 8
  %.val = load ptr, ptr %3, align 8
  %4 = getelementptr inbounds i8, ptr %0, i64 16
  %.val2 = load ptr, ptr %4, align 8
  %5 = getelementptr i8, ptr %.val, i64 132
  %.val.val = load float, ptr %5, align 4
  %6 = getelementptr i8, ptr %.val2, i64 872
  %.val2.val = load ptr, ptr %6, align 8
  %7 = getelementptr i8, ptr %.val2.val, i64 288
  %.val2.val.val = load ptr, ptr %7, align 8
  %8 = load <4 x float>, ptr %1, align 4
  %9 = getelementptr inbounds i8, ptr %1, i64 4
  %10 = load <2 x float>, ptr %9, align 4
  %11 = getelementptr inbounds i8, ptr %.val2.val.val, i64 24
  %12 = shufflevector <2 x float> %10, <2 x float> poison, <4 x i32> <i32 0, i32 1, i32 poison, i32 poison>
  %13 = shufflevector <4 x float> %8, <4 x float> %12, <4 x i32> <i32 0, i32 4, i32 5, i32 poison>
  %14 = insertelement <4 x float> %13, float %.val.val, i64 3
  store <4 x float> %14, ptr %11, align 8
  ret void
}